target datalayout = "e-m:e-p270:32:32-p271:32:32-p272:64:64-i64:64-i128:128-f80:128-n8:16:32:64-S128"
target triple = "x86_64-pc-linux-gnu"

%struct._dfilter_loc = type { i64, i64 }
%struct.dfwork_t = type { ptr, i32, ptr, i32, ptr, ptr, ptr, ptr, i32, i32, ptr, ptr, ptr, ptr, ptr, ptr, i32 }
%struct._header_field_info = type { ptr, ptr, i32, i32, ptr, i64, ptr, i32, i32, i32, i32, ptr }

@.str.43 = private unnamed_addr constant [31 x i8] c"Constant expression is invalid\00", align 1
@.str.52 = private unnamed_addr constant [64 x i8] c"Left side of %s expression must be a field or function, not %s.\00", align 1
@.str.53 = private unnamed_addr constant [93 x i8] c"Interpreting \22%s\22 as %s instead of %s. Consider writing \22%s\22 or \22.%s\22 to remove this warning\00", align 1

; Function Attrs: null_pointer_is_valid sspstrong uwtable
define internal i32 @find_logical_ftype(ptr noundef %0, ptr noundef %1) #0 {
  %3 = alloca ptr, align 8
  %4 = alloca ptr, align 8
  %5 = alloca i32, align 4
  %6 = alloca %struct._dfilter_loc, align 8
  store ptr %0, ptr %3, align 8
  store ptr %1, ptr %4, align 8
  call void @llvm.lifetime.start.p0(i64 4, ptr %5) #8
  %7 = load ptr, ptr %3, align 8
  %8 = load ptr, ptr %4, align 8
  %9 = call i32 @get_logical_ftype(ptr noundef %7, ptr noundef %8)
  store i32 %9, ptr %5, align 4
  %10 = load i32, ptr %5, align 4
  %11 = icmp eq i32 %10, 0
  br i1 %11, label %12, label %30

12:                                               ; preds = %2
  br label %13

13:                                               ; preds = %12
  br label %14

14:                                               ; preds = %13
  br label %15

15:                                               ; preds = %14
  br label %16

16:                                               ; preds = %15
  %17 = load ptr, ptr %3, align 8
  %18 = load ptr, ptr %4, align 8
  %19 = call { i64, i64 } @stnode_location(ptr noundef %18)
  %20 = getelementptr inbounds nuw { i64, i64 }, ptr %6, i32 0, i32 0
  %21 = extractvalue { i64, i64 } %19, 0
  store i64 %21, ptr %20, align 8
  %22 = getelementptr inbounds nuw { i64, i64 }, ptr %6, i32 0, i32 1
  %23 = extractvalue { i64, i64 } %19, 1
  store i64 %23, ptr %22, align 8
  %24 = getelementptr inbounds nuw { i64, i64 }, ptr %6, i32 0, i32 0
  %25 = load i64, ptr %24, align 8
  %26 = getelementptr inbounds nuw { i64, i64 }, ptr %6, i32 0, i32 1
  %27 = load i64, ptr %26, align 8
  call void (ptr, i32, i64, i64, ptr, ...) @dfilter_fail_throw(ptr noundef %17, i32 noundef -1, i64 %25, i64 %27, ptr noundef @.str.43) #7
  unreachable

28:                                               ; No predecessors!
  br label %29

29:                                               ; preds = %28
  br label %30

30:                                               ; preds = %29, %2
  %31 = load i32, ptr %5, align 4
  call void @llvm.lifetime.end.p0(i64 4, ptr %5) #8
  ret i32 %31
}

; Function Attrs: null_pointer_is_valid sspstrong uwtable
define internal void @check_warning_contains_RHS_FIELD(ptr noundef %0, ptr noundef %1, ptr noundef %2, ptr noundef %3) #0 {
  %5 = alloca ptr, align 8
  %6 = alloca ptr, align 8
  %7 = alloca ptr, align 8
  %8 = alloca ptr, align 8
  %9 = alloca ptr, align 8
  %10 = alloca ptr, align 8
  %11 = alloca ptr, align 8
  %12 = alloca ptr, align 8
  store ptr %0, ptr %5, align 8
  store ptr %1, ptr %6, align 8
  store ptr %2, ptr %7, align 8
  store ptr %3, ptr %8, align 8
  call void @llvm.lifetime.start.p0(i64 8, ptr %9) #8
  %13 = load ptr, ptr %8, align 8
  %14 = call ptr @stnode_token(ptr noundef %13)
  store ptr %14, ptr %9, align 8
  call void @llvm.lifetime.start.p0(i64 8, ptr %10) #8
  %15 = load ptr, ptr %8, align 8
  %16 = call ptr @sttype_field_hfinfo(ptr noundef %15)
  store ptr %16, ptr %10, align 8
  call void @llvm.lifetime.start.p0(i64 8, ptr %11) #8
  %17 = load ptr, ptr %9, align 8
  %18 = call ptr @fvalue_from_literal(i32 noundef 30, ptr noundef %17, i1 noundef zeroext true, ptr noundef null)
  store ptr %18, ptr %11, align 8
  %19 = load ptr, ptr %11, align 8
  %20 = icmp ne ptr %19, null
  br i1 %20, label %21, label %38

21:                                               ; preds = %4
  call void @llvm.lifetime.start.p0(i64 8, ptr %12) #8
  %22 = load ptr, ptr %5, align 8
  %23 = getelementptr inbounds nuw %struct.dfwork_t, ptr %22, i32 0, i32 14
  %24 = load ptr, ptr %23, align 8
  %25 = load ptr, ptr %11, align 8
  %26 = call ptr @fvalue_to_string_repr(ptr noundef %24, ptr noundef %25, i32 noundef 1, i32 noundef 0)
  store ptr %26, ptr %12, align 8
  %27 = load ptr, ptr %5, align 8
  %28 = load ptr, ptr %9, align 8
  %29 = load ptr, ptr %10, align 8
  %30 = getelementptr inbounds nuw %struct._header_field_info, ptr %29, i32 0, i32 0
  %31 = load ptr, ptr %30, align 8
  %32 = call ptr @ftype_pretty_name(i32 noundef 30)
  %33 = load ptr, ptr %12, align 8
  %34 = load ptr, ptr %10, align 8
  %35 = getelementptr inbounds nuw %struct._header_field_info, ptr %34, i32 0, i32 1
  %36 = load ptr, ptr %35, align 8
  call void (ptr, ptr, ...) @add_compile_warning(ptr noundef %27, ptr noundef @.str.53, ptr noundef %28, ptr noundef %31, ptr noundef %32, ptr noundef %33, ptr noundef %36)
  %37 = load ptr, ptr %11, align 8
  call void @fvalue_free(ptr noundef %37)
  call void @llvm.lifetime.end.p0(i64 8, ptr %12) #8
  br label %38

38:                                               ; preds = %21, %4
  call void @llvm.lifetime.end.p0(i64 8, ptr %11) #8
  call void @llvm.lifetime.end.p0(i64 8, ptr %10) #8
  call void @llvm.lifetime.end.p0(i64 8, ptr %9) #8
  ret void
}

; Function Attrs: null_pointer_is_valid sspstrong uwtable
define internal void @check_relation_contains(ptr noundef %0, ptr noundef %1, ptr noundef %2, ptr noundef %3) #0 {
  %5 = alloca ptr, align 8
  %6 = alloca ptr, align 8
  %7 = alloca ptr, align 8
  %8 = alloca ptr, align 8
  %9 = alloca %struct._dfilter_loc, align 8
  store ptr %0, ptr %5, align 8
  store ptr %1, ptr %6, align 8
  store ptr %2, ptr %7, align 8
  store ptr %3, ptr %8, align 8
  %10 = load ptr, ptr %5, align 8
  %11 = load ptr, ptr %7, align 8
  call void @resolve_unparsed(ptr noundef %10, ptr noundef %11, i1 noundef zeroext true)
  %12 = load ptr, ptr %5, align 8
  %13 = load ptr, ptr %8, align 8
  call void @resolve_unparsed(ptr noundef %12, ptr noundef %13, i1 noundef zeroext false)
  %14 = load ptr, ptr %8, align 8
  %15 = call i32 @stnode_type_id(ptr noundef %14)
  %16 = icmp eq i32 %15, 8
  br i1 %16, label %17, label %25

17:                                               ; preds = %4
  %18 = load ptr, ptr %8, align 8
  %19 = call zeroext i1 @stnode_get_flags(ptr noundef %18, i16 noundef zeroext 1)
  br i1 %19, label %20, label %25

20:                                               ; preds = %17
  %21 = load ptr, ptr %5, align 8
  %22 = load ptr, ptr %6, align 8
  %23 = load ptr, ptr %7, align 8
  %24 = load ptr, ptr %8, align 8
  call void @check_warning_contains_RHS_FIELD(ptr noundef %21, ptr noundef %22, ptr noundef %23, ptr noundef %24)
  br label %25

25:                                               ; preds = %20, %17, %4
  %26 = load ptr, ptr %7, align 8
  %27 = call i32 @stnode_type_id(ptr noundef %26)
  switch i32 %27, label %49 [
    i32 8, label %28
    i32 4, label %28
    i32 2, label %28
    i32 11, label %33
    i32 10, label %41
  ]

28:                                               ; preds = %25, %25, %25
  %29 = load ptr, ptr %5, align 8
  %30 = load ptr, ptr %6, align 8
  %31 = load ptr, ptr %7, align 8
  %32 = load ptr, ptr %8, align 8
  call void @check_relation_LHS_FIELD(ptr noundef %29, i32 noundef 12, ptr noundef @ftype_can_contains, i1 noundef zeroext true, ptr noundef %30, ptr noundef %31, ptr noundef %32)
  br label %69

33:                                               ; preds = %25
  %34 = load ptr, ptr %5, align 8
  %35 = load ptr, ptr %6, align 8
  %36 = load ptr, ptr %7, align 8
  %37 = load ptr, ptr %8, align 8
  %38 = load ptr, ptr %5, align 8
  %39 = load ptr, ptr %6, align 8
  %40 = call i32 @find_logical_ftype(ptr noundef %38, ptr noundef %39)
  call void @check_relation_LHS_FUNCTION(ptr noundef %34, i32 noundef 12, ptr noundef @ftype_can_contains, i1 noundef zeroext true, ptr noundef %35, ptr noundef %36, ptr noundef %37, i32 noundef %40)
  br label %69

41:                                               ; preds = %25
  %42 = load ptr, ptr %5, align 8
  %43 = load ptr, ptr %6, align 8
  %44 = load ptr, ptr %7, align 8
  %45 = load ptr, ptr %8, align 8
  %46 = load ptr, ptr %5, align 8
  %47 = load ptr, ptr %6, align 8
  %48 = call i32 @find_logical_ftype(ptr noundef %46, ptr noundef %47)
  call void @check_relation_LHS_SLICE(ptr noundef %42, i32 noundef 12, ptr noundef @ftype_can_contains, i1 noundef zeroext true, ptr noundef %43, ptr noundef %44, ptr noundef %45, i32 noundef %48)
  br label %69

49:                                               ; preds = %25
  br label %50

50:                                               ; preds = %49
  br label %51

51:                                               ; preds = %50
  br label %52

52:                                               ; preds = %51
  %53 = load ptr, ptr %5, align 8
  %54 = load ptr, ptr %7, align 8
  %55 = call { i64, i64 } @stnode_location(ptr noundef %54)
  %56 = getelementptr inbounds nuw { i64, i64 }, ptr %9, i32 0, i32 0
  %57 = extractvalue { i64, i64 } %55, 0
  store i64 %57, ptr %56, align 8
  %58 = getelementptr inbounds nuw { i64, i64 }, ptr %9, i32 0, i32 1
  %59 = extractvalue { i64, i64 } %55, 1
  store i64 %59, ptr %58, align 8
  %60 = load ptr, ptr %6, align 8
  %61 = call ptr @stnode_tostr(ptr noundef %60, i1 noundef zeroext true)
  %62 = load ptr, ptr %7, align 8
  %63 = call ptr @stnode_tostr(ptr noundef %62, i1 noundef zeroext true)
  %64 = getelementptr inbounds nuw { i64, i64 }, ptr %9, i32 0, i32 0
  %65 = load i64, ptr %64, align 8
  %66 = getelementptr inbounds nuw { i64, i64 }, ptr %9, i32 0, i32 1
  %67 = load i64, ptr %66, align 8
  call void (ptr, i32, i64, i64, ptr, ...) @dfilter_fail_throw(ptr noundef %53, i32 noundef -1, i64 %65, i64 %67, ptr noundef @.str.52, ptr noundef %61, ptr noundef %63) #7
  unreachable

68:                                               ; No predecessors!
  br label %69

69:                                               ; preds = %68, %41, %33, %28
  ret void
}