; Function Attrs: null_pointer_is_valid sspstrong uwtable
define internal fastcc void @check_relation_contains(ptr noundef %0, ptr noundef %1, ptr noundef %2, ptr noundef %3) unnamed_addr #0 {
  tail call void @resolve_unparsed(ptr noundef %0, ptr noundef %2, i1 noundef zeroext true)
  %5 = tail call i32 @stnode_type_id(ptr noundef %3)
  %.not.i = icmp eq i32 %5, 2
  br i1 %.not.i, label %6, label %resolve_unparsed.exit

6:                                                ; preds = %4
  %7 = tail call ptr @stnode_data(ptr noundef %3)
  %8 = getelementptr inbounds nuw i8, ptr %0, i64 72
  %9 = load ptr, ptr %8, align 8
  %10 = tail call ptr @dfilter_resolve_unparsed(ptr noundef %7, ptr noundef %9)
  %.not10.i = icmp eq ptr %10, null
  br i1 %.not10.i, label %12, label %11

11:                                               ; preds = %6
  tail call void @stnode_replace(ptr noundef %3, i32 noundef 8, ptr noundef nonnull %10)
  br label %resolve_unparsed.exit

12:                                               ; preds = %6
  tail call void @stnode_mutate(ptr noundef %3, i32 noundef 3)
  br label %resolve_unparsed.exit

resolve_unparsed.exit:                            ; preds = %4, %11, %12
  %13 = tail call i32 @stnode_type_id(ptr noundef %3)
  %14 = icmp eq i32 %13, 8
  br i1 %14, label %15, label %check_warning_contains_RHS_FIELD.exit

15:                                               ; preds = %resolve_unparsed.exit
  %16 = tail call zeroext i1 @stnode_get_flags(ptr noundef %3, i16 noundef zeroext 1)
  br i1 %16, label %17, label %check_warning_contains_RHS_FIELD.exit

17:                                               ; preds = %15
  %18 = tail call ptr @stnode_token(ptr noundef %3)
  %19 = tail call ptr @sttype_field_hfinfo(ptr noundef %3)
  %20 = tail call ptr @fvalue_from_literal(i32 noundef 30, ptr noundef %18, i1 noundef zeroext true, ptr noundef null)
  %.not.i31 = icmp eq ptr %20, null
  br i1 %.not.i31, label %check_warning_contains_RHS_FIELD.exit, label %21

21:                                               ; preds = %17
  %22 = getelementptr inbounds nuw i8, ptr %0, i64 104
  %23 = load ptr, ptr %22, align 8
  %24 = tail call ptr @fvalue_to_string_repr(ptr noundef %23, ptr noundef nonnull %20, i32 noundef 1, i32 noundef 0)
  %25 = load ptr, ptr %19, align 8
  %26 = tail call ptr @ftype_pretty_name(i32 noundef 30)
  %27 = getelementptr inbounds nuw i8, ptr %19, i64 8
  %28 = load ptr, ptr %27, align 8
  tail call void (ptr, ptr, ...) @add_compile_warning(ptr noundef %0, ptr noundef nonnull @.str.53, ptr noundef %18, ptr noundef %25, ptr noundef %26, ptr noundef %24, ptr noundef %28)
  tail call void @fvalue_free(ptr noundef nonnull %20)
  br label %check_warning_contains_RHS_FIELD.exit

check_warning_contains_RHS_FIELD.exit:            ; preds = %21, %17, %15, %resolve_unparsed.exit
  %29 = tail call i32 @stnode_type_id(ptr noundef %2)
  switch i32 %29, label %45 [
    i32 8, label %30
    i32 4, label %30
    i32 2, label %30
    i32 11, label %31
    i32 10, label %38
  ]

30:                                               ; preds = %check_warning_contains_RHS_FIELD.exit, %check_warning_contains_RHS_FIELD.exit, %check_warning_contains_RHS_FIELD.exit
  tail call fastcc void @check_relation_LHS_FIELD(ptr noundef %0, i32 noundef 12, ptr noundef nonnull @ftype_can_contains, i1 noundef zeroext true, ptr noundef %1, ptr noundef %2, ptr noundef %3)
  br label %51

31:                                               ; preds = %check_warning_contains_RHS_FIELD.exit
  %32 = tail call i32 @get_logical_ftype(ptr noundef %0, ptr noundef %1)
  %33 = icmp eq i32 %32, 0
  br i1 %33, label %34, label %find_logical_ftype.exit

34:                                               ; preds = %31
  %35 = tail call { i64, i64 } @stnode_location(ptr noundef %1)
  %36 = extractvalue { i64, i64 } %35, 0
  %37 = extractvalue { i64, i64 } %35, 1
  tail call void (ptr, i32, i64, i64, ptr, ...) @dfilter_fail_throw(ptr noundef %0, i32 noundef -1, i64 %36, i64 %37, ptr noundef nonnull @.str.43) #7
  unreachable

find_logical_ftype.exit:                          ; preds = %31
  tail call fastcc void @check_relation_LHS_FUNCTION(ptr noundef %0, ptr noundef nonnull @ftype_can_contains, i1 noundef zeroext true, ptr noundef %1, ptr noundef %2, ptr noundef %3, i32 noundef %32)
  br label %51

38:                                               ; preds = %check_warning_contains_RHS_FIELD.exit
  %39 = tail call i32 @get_logical_ftype(ptr noundef %0, ptr noundef %1)
  %40 = icmp eq i32 %39, 0
  br i1 %40, label %41, label %find_logical_ftype.exit32

41:                                               ; preds = %38
  %42 = tail call { i64, i64 } @stnode_location(ptr noundef %1)
  %43 = extractvalue { i64, i64 } %42, 0
  %44 = extractvalue { i64, i64 } %42, 1
  tail call void (ptr, i32, i64, i64, ptr, ...) @dfilter_fail_throw(ptr noundef %0, i32 noundef -1, i64 %43, i64 %44, ptr noundef nonnull @.str.43) #7
  unreachable

find_logical_ftype.exit32:                        ; preds = %38
  tail call fastcc void @check_relation_LHS_SLICE(ptr noundef %0, ptr noundef nonnull @ftype_can_contains, i1 noundef zeroext true, ptr noundef %1, ptr noundef %2, ptr noundef %3, i32 noundef %39)
  br label %51

45:                                               ; preds = %check_warning_contains_RHS_FIELD.exit
  %46 = tail call { i64, i64 } @stnode_location(ptr noundef %2)
  %47 = extractvalue { i64, i64 } %46, 0
  %48 = extractvalue { i64, i64 } %46, 1
  %49 = tail call ptr @stnode_tostr(ptr noundef %1, i1 noundef zeroext true)
  %50 = tail call ptr @stnode_tostr(ptr noundef %2, i1 noundef zeroext true)
  tail call void (ptr, i32, i64, i64, ptr, ...) @dfilter_fail_throw(ptr noundef %0, i32 noundef -1, i64 %47, i64 %48, ptr noundef nonnull @.str.52, ptr noundef %49, ptr noundef %50) #7
  unreachable

51:                                               ; preds = %find_logical_ftype.exit32, %find_logical_ftype.exit, %30
  ret void
}